target datalayout = "e-m:e-p270:32:32-p271:32:32-p272:64:64-i64:64-i128:128-f80:128-n8:16:32:64-S128"
target triple = "x86_64-pc-linux-gnu"

@hf_UCO_Time_hour = internal global i32 0, align 4
@hf_UCO_Time_minute = internal global i32 0, align 4
@hf_UCO_Time_second = internal global i32 0, align 4
@hf_UCO_Date_year = internal global i32 0, align 4
@hf_UCO_Date_month = internal global i32 0, align 4
@hf_UCO_Date_day = internal global i32 0, align 4
@ett_giop_struct = internal global i32 0, align 4
@boundary = internal global i32 12, align 4
@.str.841 = private unnamed_addr constant [16 x i8] c"struct UCO_Date\00", align 1
@.str.842 = private unnamed_addr constant [16 x i8] c"struct UCO_Time\00", align 1

; Function Attrs: null_pointer_is_valid sspstrong uwtable
define internal void @decode_UCO_Time_st(ptr noundef %0, ptr noundef %1, ptr noundef %2, ptr noundef %3, ptr noundef %4, ptr noundef %5, ptr noundef %6, i1 noundef zeroext %7) #0 {
  %9 = alloca ptr, align 8
  %10 = alloca ptr, align 8
  %11 = alloca ptr, align 8
  %12 = alloca ptr, align 8
  %13 = alloca ptr, align 8
  %14 = alloca ptr, align 8
  %15 = alloca ptr, align 8
  %16 = alloca i8, align 1
  store ptr %0, ptr %9, align 8
  store ptr %1, ptr %10, align 8
  store ptr %2, ptr %11, align 8
  store ptr %3, ptr %12, align 8
  store ptr %4, ptr %13, align 8
  store ptr %5, ptr %14, align 8
  store ptr %6, ptr %15, align 8
  %17 = zext i1 %7 to i8
  store i8 %17, ptr %16, align 1
  %18 = load ptr, ptr %11, align 8
  %19 = load i32, ptr @hf_UCO_Time_hour, align 4
  %20 = load ptr, ptr %9, align 8
  %21 = load ptr, ptr %13, align 8
  %22 = load i32, ptr %21, align 4
  %23 = sub i32 %22, 2
  %24 = load ptr, ptr %9, align 8
  %25 = load ptr, ptr %13, align 8
  %26 = load i8, ptr %16, align 1, !range !6, !noundef !7
  %27 = trunc i8 %26 to i1
  %28 = load i32, ptr @boundary, align 4
  %29 = call zeroext i16 @get_CDR_ushort(ptr noundef %24, ptr noundef %25, i1 noundef zeroext %27, i32 noundef %28)
  %30 = zext i16 %29 to i32
  %31 = call ptr @proto_tree_add_uint(ptr noundef %18, i32 noundef %19, ptr noundef %20, i32 noundef %23, i32 noundef 2, i32 noundef %30)
  %32 = load ptr, ptr %11, align 8
  %33 = load i32, ptr @hf_UCO_Time_minute, align 4
  %34 = load ptr, ptr %9, align 8
  %35 = load ptr, ptr %13, align 8
  %36 = load i32, ptr %35, align 4
  %37 = sub i32 %36, 2
  %38 = load ptr, ptr %9, align 8
  %39 = load ptr, ptr %13, align 8
  %40 = load i8, ptr %16, align 1, !range !6, !noundef !7
  %41 = trunc i8 %40 to i1
  %42 = load i32, ptr @boundary, align 4
  %43 = call zeroext i16 @get_CDR_ushort(ptr noundef %38, ptr noundef %39, i1 noundef zeroext %41, i32 noundef %42)
  %44 = zext i16 %43 to i32
  %45 = call ptr @proto_tree_add_uint(ptr noundef %32, i32 noundef %33, ptr noundef %34, i32 noundef %37, i32 noundef 2, i32 noundef %44)
  %46 = load ptr, ptr %11, align 8
  %47 = load i32, ptr @hf_UCO_Time_second, align 4
  %48 = load ptr, ptr %9, align 8
  %49 = load ptr, ptr %13, align 8
  %50 = load i32, ptr %49, align 4
  %51 = sub i32 %50, 4
  %52 = load ptr, ptr %9, align 8
  %53 = load ptr, ptr %13, align 8
  %54 = load i8, ptr %16, align 1, !range !6, !noundef !7
  %55 = trunc i8 %54 to i1
  %56 = load i32, ptr @boundary, align 4
  %57 = call float @get_CDR_float(ptr noundef %52, ptr noundef %53, i1 noundef zeroext %55, i32 noundef %56)
  %58 = call ptr @proto_tree_add_float(ptr noundef %46, i32 noundef %47, ptr noundef %48, i32 noundef %51, i32 noundef 4, float noundef %57)
  ret void
}

; Function Attrs: null_pointer_is_valid sspstrong uwtable
define internal void @decode_UCO_Date_st(ptr noundef %0, ptr noundef %1, ptr noundef %2, ptr noundef %3, ptr noundef %4, ptr noundef %5, ptr noundef %6, i1 noundef zeroext %7) #0 {
  %9 = alloca ptr, align 8
  %10 = alloca ptr, align 8
  %11 = alloca ptr, align 8
  %12 = alloca ptr, align 8
  %13 = alloca ptr, align 8
  %14 = alloca ptr, align 8
  %15 = alloca ptr, align 8
  %16 = alloca i8, align 1
  store ptr %0, ptr %9, align 8
  store ptr %1, ptr %10, align 8
  store ptr %2, ptr %11, align 8
  store ptr %3, ptr %12, align 8
  store ptr %4, ptr %13, align 8
  store ptr %5, ptr %14, align 8
  store ptr %6, ptr %15, align 8
  %17 = zext i1 %7 to i8
  store i8 %17, ptr %16, align 1
  %18 = load ptr, ptr %11, align 8
  %19 = load i32, ptr @hf_UCO_Date_year, align 4
  %20 = load ptr, ptr %9, align 8
  %21 = load ptr, ptr %13, align 8
  %22 = load i32, ptr %21, align 4
  %23 = sub i32 %22, 2
  %24 = load ptr, ptr %9, align 8
  %25 = load ptr, ptr %13, align 8
  %26 = load i8, ptr %16, align 1, !range !6, !noundef !7
  %27 = trunc i8 %26 to i1
  %28 = load i32, ptr @boundary, align 4
  %29 = call zeroext i16 @get_CDR_ushort(ptr noundef %24, ptr noundef %25, i1 noundef zeroext %27, i32 noundef %28)
  %30 = zext i16 %29 to i32
  %31 = call ptr @proto_tree_add_uint(ptr noundef %18, i32 noundef %19, ptr noundef %20, i32 noundef %23, i32 noundef 2, i32 noundef %30)
  %32 = load ptr, ptr %11, align 8
  %33 = load i32, ptr @hf_UCO_Date_month, align 4
  %34 = load ptr, ptr %9, align 8
  %35 = load ptr, ptr %13, align 8
  %36 = load i32, ptr %35, align 4
  %37 = sub i32 %36, 2
  %38 = load ptr, ptr %9, align 8
  %39 = load ptr, ptr %13, align 8
  %40 = load i8, ptr %16, align 1, !range !6, !noundef !7
  %41 = trunc i8 %40 to i1
  %42 = load i32, ptr @boundary, align 4
  %43 = call zeroext i16 @get_CDR_ushort(ptr noundef %38, ptr noundef %39, i1 noundef zeroext %41, i32 noundef %42)
  %44 = zext i16 %43 to i32
  %45 = call ptr @proto_tree_add_uint(ptr noundef %32, i32 noundef %33, ptr noundef %34, i32 noundef %37, i32 noundef 2, i32 noundef %44)
  %46 = load ptr, ptr %11, align 8
  %47 = load i32, ptr @hf_UCO_Date_day, align 4
  %48 = load ptr, ptr %9, align 8
  %49 = load ptr, ptr %13, align 8
  %50 = load i32, ptr %49, align 4
  %51 = sub i32 %50, 2
  %52 = load ptr, ptr %9, align 8
  %53 = load ptr, ptr %13, align 8
  %54 = load i8, ptr %16, align 1, !range !6, !noundef !7
  %55 = trunc i8 %54 to i1
  %56 = load i32, ptr @boundary, align 4
  %57 = call zeroext i16 @get_CDR_ushort(ptr noundef %52, ptr noundef %53, i1 noundef zeroext %55, i32 noundef %56)
  %58 = zext i16 %57 to i32
  %59 = call ptr @proto_tree_add_uint(ptr noundef %46, i32 noundef %47, ptr noundef %48, i32 noundef %51, i32 noundef 2, i32 noundef %58)
  ret void
}

; Function Attrs: null_pointer_is_valid sspstrong uwtable
define internal void @decode_UCO_AbsTime_st(ptr noundef %0, ptr noundef %1, ptr noundef %2, ptr noundef %3, ptr noundef %4, ptr noundef %5, ptr noundef %6, i1 noundef zeroext %7) #0 {
  %9 = alloca ptr, align 8
  %10 = alloca ptr, align 8
  %11 = alloca ptr, align 8
  %12 = alloca ptr, align 8
  %13 = alloca ptr, align 8
  %14 = alloca ptr, align 8
  %15 = alloca ptr, align 8
  %16 = alloca i8, align 1
  %17 = alloca ptr, align 8
  %18 = alloca ptr, align 8
  store ptr %0, ptr %9, align 8
  store ptr %1, ptr %10, align 8
  store ptr %2, ptr %11, align 8
  store ptr %3, ptr %12, align 8
  store ptr %4, ptr %13, align 8
  store ptr %5, ptr %14, align 8
  store ptr %6, ptr %15, align 8
  %19 = zext i1 %7 to i8
  store i8 %19, ptr %16, align 1
  call void @llvm.lifetime.start.p0(i64 8, ptr %17) #6
  %20 = load ptr, ptr %11, align 8
  %21 = load ptr, ptr %9, align 8
  %22 = load ptr, ptr %13, align 8
  %23 = load i32, ptr %22, align 4
  %24 = load i32, ptr @ett_giop_struct, align 4
  %25 = call ptr @proto_tree_add_subtree(ptr noundef %20, ptr noundef %21, i32 noundef %23, i32 noundef -1, i32 noundef %24, ptr noundef null, ptr noundef @.str.841)
  store ptr %25, ptr %17, align 8
  %26 = load ptr, ptr %9, align 8
  %27 = load ptr, ptr %10, align 8
  %28 = load ptr, ptr %17, align 8
  %29 = load ptr, ptr %12, align 8
  %30 = load ptr, ptr %13, align 8
  %31 = load ptr, ptr %14, align 8
  %32 = load ptr, ptr %15, align 8
  %33 = load i8, ptr %16, align 1, !range !6, !noundef !7
  %34 = trunc i8 %33 to i1
  call void @decode_UCO_Date_st(ptr noundef %26, ptr noundef %27, ptr noundef %28, ptr noundef %29, ptr noundef %30, ptr noundef %31, ptr noundef %32, i1 noundef zeroext %34)
  call void @llvm.lifetime.end.p0(i64 8, ptr %17) #6
  call void @llvm.lifetime.start.p0(i64 8, ptr %18) #6
  %35 = load ptr, ptr %11, align 8
  %36 = load ptr, ptr %9, align 8
  %37 = load ptr, ptr %13, align 8
  %38 = load i32, ptr %37, align 4
  %39 = load i32, ptr @ett_giop_struct, align 4
  %40 = call ptr @proto_tree_add_subtree(ptr noundef %35, ptr noundef %36, i32 noundef %38, i32 noundef -1, i32 noundef %39, ptr noundef null, ptr noundef @.str.842)
  store ptr %40, ptr %18, align 8
  %41 = load ptr, ptr %9, align 8
  %42 = load ptr, ptr %10, align 8
  %43 = load ptr, ptr %18, align 8
  %44 = load ptr, ptr %12, align 8
  %45 = load ptr, ptr %13, align 8
  %46 = load ptr, ptr %14, align 8
  %47 = load ptr, ptr %15, align 8
  %48 = load i8, ptr %16, align 1, !range !6, !noundef !7
  %49 = trunc i8 %48 to i1
  call void @decode_UCO_Time_st(ptr noundef %41, ptr noundef %42, ptr noundef %43, ptr noundef %44, ptr noundef %45, ptr noundef %46, ptr noundef %47, i1 noundef zeroext %49)
  call void @llvm.lifetime.end.p0(i64 8, ptr %18) #6
  ret void
}