; Function Attrs: null_pointer_is_valid sspstrong uwtable
define internal fastcc void @decode_UCO_AbsTime_st(ptr noundef %0, ptr noundef %1, ptr noundef %2, i1 noundef zeroext %3) unnamed_addr #0 {
  %5 = load i32, ptr %2, align 4
  %6 = load i32, ptr @ett_giop_struct, align 4
  %7 = tail call ptr @proto_tree_add_subtree(ptr noundef %1, ptr noundef %0, i32 noundef %5, i32 noundef -1, i32 noundef %6, ptr noundef null, ptr noundef nonnull @.str.841)
  %8 = load i32, ptr @hf_UCO_Date_year, align 4
  %9 = load i32, ptr %2, align 4
  %10 = add i32 %9, -2
  %11 = tail call zeroext i16 @get_CDR_ushort(ptr noundef %0, ptr noundef %2, i1 noundef zeroext %3, i32 noundef 12)
  %12 = zext i16 %11 to i32
  %13 = tail call ptr @proto_tree_add_uint(ptr noundef %7, i32 noundef %8, ptr noundef %0, i32 noundef %10, i32 noundef 2, i32 noundef %12)
  %14 = load i32, ptr @hf_UCO_Date_month, align 4
  %15 = load i32, ptr %2, align 4
  %16 = add i32 %15, -2
  %17 = tail call zeroext i16 @get_CDR_ushort(ptr noundef %0, ptr noundef %2, i1 noundef zeroext %3, i32 noundef 12)
  %18 = zext i16 %17 to i32
  %19 = tail call ptr @proto_tree_add_uint(ptr noundef %7, i32 noundef %14, ptr noundef %0, i32 noundef %16, i32 noundef 2, i32 noundef %18)
  %20 = load i32, ptr @hf_UCO_Date_day, align 4
  %21 = load i32, ptr %2, align 4
  %22 = add i32 %21, -2
  %23 = tail call zeroext i16 @get_CDR_ushort(ptr noundef %0, ptr noundef %2, i1 noundef zeroext %3, i32 noundef 12)
  %24 = zext i16 %23 to i32
  %25 = tail call ptr @proto_tree_add_uint(ptr noundef %7, i32 noundef %20, ptr noundef %0, i32 noundef %22, i32 noundef 2, i32 noundef %24)
  %26 = load i32, ptr %2, align 4
  %27 = load i32, ptr @ett_giop_struct, align 4
  %28 = tail call ptr @proto_tree_add_subtree(ptr noundef %1, ptr noundef %0, i32 noundef %26, i32 noundef -1, i32 noundef %27, ptr noundef null, ptr noundef nonnull @.str.842)
  %29 = load i32, ptr @hf_UCO_Time_hour, align 4
  %30 = load i32, ptr %2, align 4
  %31 = add i32 %30, -2
  %32 = tail call zeroext i16 @get_CDR_ushort(ptr noundef %0, ptr noundef %2, i1 noundef zeroext %3, i32 noundef 12)
  %33 = zext i16 %32 to i32
  %34 = tail call ptr @proto_tree_add_uint(ptr noundef %28, i32 noundef %29, ptr noundef %0, i32 noundef %31, i32 noundef 2, i32 noundef %33)
  %35 = load i32, ptr @hf_UCO_Time_minute, align 4
  %36 = load i32, ptr %2, align 4
  %37 = add i32 %36, -2
  %38 = tail call zeroext i16 @get_CDR_ushort(ptr noundef %0, ptr noundef %2, i1 noundef zeroext %3, i32 noundef 12)
  %39 = zext i16 %38 to i32
  %40 = tail call ptr @proto_tree_add_uint(ptr noundef %28, i32 noundef %35, ptr noundef %0, i32 noundef %37, i32 noundef 2, i32 noundef %39)
  %41 = load i32, ptr @hf_UCO_Time_second, align 4
  %42 = load i32, ptr %2, align 4
  %43 = add i32 %42, -4
  %44 = tail call float @get_CDR_float(ptr noundef %0, ptr noundef %2, i1 noundef zeroext %3, i32 noundef 12)
  %45 = tail call ptr @proto_tree_add_float(ptr noundef %28, i32 noundef %41, ptr noundef %0, i32 noundef %43, i32 noundef 4, float noundef %44)
  ret void
}